target datalayout = "e-m:e-p270:32:32-p271:32:32-p272:64:64-i64:64-i128:128-f80:128-n8:16:32:64-S128"
target triple = "x86_64-pc-linux-gnu"

%struct.client = type { i64, i64, ptr, i8, i8, i8, i8, i32, ptr, ptr, ptr, ptr, ptr, i64, i64, i32, ptr, i32, i32, ptr, i64, ptr, ptr, ptr, ptr, ptr, i32, i32, i64, ptr, i64, ptr, i64, i64, i64, i32, ptr, i64, i64, i32, i32, i32, i32, i64, i64, ptr, i64, i64, i64, i64, i64, i64, i64, i64, [41 x i8], i32, ptr, i32, i32, i64, %struct.multiState, %struct.blockingState, i64, ptr, ptr, ptr, ptr, ptr, ptr, ptr, ptr, ptr, ptr, ptr, ptr, ptr, ptr, i64, ptr, i64, i32, ptr, ptr, ptr, i64, %struct.listNode, i64, i64, i32, i64, ptr }
%struct.multiState = type { ptr, i32, i32, i32, i64, i32 }
%struct.blockingState = type { i32, i64, i32, ptr, i32, i32, i64, ptr, ptr, i64 }
%struct.listNode = type { ptr, ptr, ptr }
%struct.zrange_result_handler = type { i32, ptr, ptr, ptr, ptr, i32, i32, ptr, ptr, ptr, ptr }

; Function Attrs: nounwind uwtable
define internal void @zrangeResultBeginClient(ptr noundef %0, i64 noundef %1) #0 {
  %3 = alloca ptr, align 8
  %4 = alloca i64, align 8
  store ptr %0, ptr %3, align 8, !tbaa !208
  store i64 %1, ptr %4, align 8, !tbaa !31
  %5 = load i64, ptr %4, align 8, !tbaa !31
  %6 = icmp sgt i64 %5, 0
  br i1 %6, label %7, label %29

7:                                                ; preds = %2
  %8 = load ptr, ptr %3, align 8, !tbaa !208
  %9 = getelementptr inbounds nuw %struct.zrange_result_handler, ptr %8, i32 0, i32 5
  %10 = load i32, ptr %9, align 8, !tbaa !229
  %11 = icmp ne i32 %10, 0
  br i1 %11, label %12, label %22

12:                                               ; preds = %7
  %13 = load ptr, ptr %3, align 8, !tbaa !208
  %14 = getelementptr inbounds nuw %struct.zrange_result_handler, ptr %13, i32 0, i32 1
  %15 = load ptr, ptr %14, align 8, !tbaa !210
  %16 = getelementptr inbounds nuw %struct.client, ptr %15, i32 0, i32 7
  %17 = load i32, ptr %16, align 4, !tbaa !205
  %18 = icmp eq i32 %17, 2
  br i1 %18, label %19, label %22

19:                                               ; preds = %12
  %20 = load i64, ptr %4, align 8, !tbaa !31
  %21 = mul nsw i64 %20, 2
  store i64 %21, ptr %4, align 8, !tbaa !31
  br label %22

22:                                               ; preds = %19, %12, %7
  %23 = load ptr, ptr %3, align 8, !tbaa !208
  %24 = getelementptr inbounds nuw %struct.zrange_result_handler, ptr %23, i32 0, i32 1
  %25 = load ptr, ptr %24, align 8, !tbaa !210
  %26 = load i64, ptr %4, align 8, !tbaa !31
  call void @addReplyArrayLen(ptr noundef %25, i64 noundef %26)
  %27 = load ptr, ptr %3, align 8, !tbaa !208
  %28 = getelementptr inbounds nuw %struct.zrange_result_handler, ptr %27, i32 0, i32 4
  store ptr null, ptr %28, align 8, !tbaa !256
  br label %36

29:                                               ; preds = %2
  %30 = load ptr, ptr %3, align 8, !tbaa !208
  %31 = getelementptr inbounds nuw %struct.zrange_result_handler, ptr %30, i32 0, i32 1
  %32 = load ptr, ptr %31, align 8, !tbaa !210
  %33 = call ptr @addReplyDeferredLen(ptr noundef %32)
  %34 = load ptr, ptr %3, align 8, !tbaa !208
  %35 = getelementptr inbounds nuw %struct.zrange_result_handler, ptr %34, i32 0, i32 4
  store ptr %33, ptr %35, align 8, !tbaa !256
  br label %36

36:                                               ; preds = %29, %22
  ret void
}