; Function Attrs: nounwind uwtable
define internal void @zrangeResultBeginClient(ptr noundef captures(none) initializes((32, 40)) %0, i64 noundef %1) #0 {
  %3 = icmp sgt i64 %1, 0
  br i1 %3, label %4, label %12

4:                                                ; preds = %2
  %5 = getelementptr inbounds nuw i8, ptr %0, i64 40
  %6 = load i32, ptr %5, align 8, !tbaa !204
  %.not = icmp eq i32 %6, 0
  %.phi.trans.insert = getelementptr inbounds nuw i8, ptr %0, i64 8
  %.pre = load ptr, ptr %.phi.trans.insert, align 8, !tbaa !194
  br i1 %.not, label %._crit_edge, label %7

7:                                                ; preds = %4
  %8 = getelementptr inbounds nuw i8, ptr %.pre, i64 28
  %9 = load i32, ptr %8, align 4, !tbaa !185
  %10 = icmp eq i32 %9, 2
  %11 = zext i1 %10 to i64
  %spec.select = shl nuw nsw i64 %1, %11
  br label %._crit_edge

._crit_edge:                                      ; preds = %4, %7
  %.0 = phi i64 [ %spec.select, %7 ], [ %1, %4 ]
  tail call void @addReplyArrayLen(ptr noundef %.pre, i64 noundef %.0) #18
  br label %16

12:                                               ; preds = %2
  %13 = getelementptr inbounds nuw i8, ptr %0, i64 8
  %14 = load ptr, ptr %13, align 8, !tbaa !194
  %15 = tail call ptr @addReplyDeferredLen(ptr noundef %14) #18
  br label %16

16:                                               ; preds = %12, %._crit_edge
  %.sink = phi ptr [ %15, %12 ], [ null, %._crit_edge ]
  %17 = getelementptr inbounds nuw i8, ptr %0, i64 32
  store ptr %.sink, ptr %17, align 8, !tbaa !228
  ret void
}